; Function Attrs: mustprogress uwtable
define i32 @uloc_addLikelySubtags_77(ptr noundef %0, ptr noundef %1, i32 noundef %2, ptr noundef %3) local_unnamed_addr #1 personality ptr @__gxx_personality_v0 {
  %5 = alloca %"class.icu_77::CheckedArrayByteSink", align 8
  %6 = load i32, ptr %3, align 4, !tbaa !13
  %7 = icmp slt i32 %6, 1
  br i1 %7, label %8, label %"_ZN6icu_7712ByteSinkUtil28viaByteSinkToTerminatedCharsIZ24uloc_addLikelySubtags_77E3$_0vEEiPciOT_R10UErrorCode.exit"

8:                                                ; preds = %4
  call void @llvm.lifetime.start.p0(i64 32, ptr nonnull %5) #18
  call void @_ZN6icu_7720CheckedArrayByteSinkC1EPci(ptr noundef nonnull align 8 dereferenceable(29) %5, ptr noundef %1, i32 noundef %2)
  invoke void @_Z27ulocimp_addLikelySubtags_77PKcRN6icu_778ByteSinkER10UErrorCode(ptr noundef %0, ptr noundef nonnull align 8 dereferenceable(8) %5, ptr noundef nonnull align 4 dereferenceable(4) %3)
          to label %"_ZZ24uloc_addLikelySubtags_77ENK3$_0clERN6icu_778ByteSinkER10UErrorCode.exit.i" unwind label %11

"_ZZ24uloc_addLikelySubtags_77ENK3$_0clERN6icu_778ByteSinkER10UErrorCode.exit.i": ; preds = %8
  %9 = load i32, ptr %3, align 4, !tbaa !13
  %10 = icmp slt i32 %9, 1
  br i1 %10, label %13, label %23

11:                                               ; preds = %8
  %12 = landingpad { ptr, i32 }
          cleanup
  br label %24

13:                                               ; preds = %"_ZZ24uloc_addLikelySubtags_77ENK3$_0clERN6icu_778ByteSinkER10UErrorCode.exit.i"
  %14 = getelementptr inbounds nuw i8, ptr %5, i64 24
  %15 = load i32, ptr %14, align 8, !tbaa !15
  %16 = getelementptr inbounds nuw i8, ptr %5, i64 28
  %17 = load i8, ptr %16, align 4, !tbaa !18
  %.not17.i = icmp eq i8 %17, 0
  br i1 %.not17.i, label %21, label %18

18:                                               ; preds = %13
  store i32 15, ptr %3, align 4, !tbaa !13
  br label %23

19:                                               ; preds = %21
  %20 = landingpad { ptr, i32 }
          cleanup
  br label %24

21:                                               ; preds = %13
  %22 = invoke i32 @u_terminateChars_77(ptr noundef %1, i32 noundef %2, i32 noundef %15, ptr noundef nonnull align 4 dereferenceable(4) %3)
          to label %23 unwind label %19

23:                                               ; preds = %21, %18, %"_ZZ24uloc_addLikelySubtags_77ENK3$_0clERN6icu_778ByteSinkER10UErrorCode.exit.i"
  %.1.i = phi i32 [ 0, %"_ZZ24uloc_addLikelySubtags_77ENK3$_0clERN6icu_778ByteSinkER10UErrorCode.exit.i" ], [ %15, %18 ], [ %22, %21 ]
  call void @_ZN6icu_7720CheckedArrayByteSinkD1Ev(ptr noundef nonnull align 8 dereferenceable(29) %5) #18
  call void @llvm.lifetime.end.p0(i64 32, ptr nonnull %5) #18
  br label %"_ZN6icu_7712ByteSinkUtil28viaByteSinkToTerminatedCharsIZ24uloc_addLikelySubtags_77E3$_0vEEiPciOT_R10UErrorCode.exit"

24:                                               ; preds = %19, %11
  %.pn.i = phi { ptr, i32 } [ %20, %19 ], [ %12, %11 ]
  call void @_ZN6icu_7720CheckedArrayByteSinkD1Ev(ptr noundef nonnull align 8 dereferenceable(29) %5) #18
  call void @llvm.lifetime.end.p0(i64 32, ptr nonnull %5) #18
  resume { ptr, i32 } %.pn.i

"_ZN6icu_7712ByteSinkUtil28viaByteSinkToTerminatedCharsIZ24uloc_addLikelySubtags_77E3$_0vEEiPciOT_R10UErrorCode.exit": ; preds = %4, %23
  %.0.i = phi i32 [ %.1.i, %23 ], [ 0, %4 ]
  ret i32 %.0.i
}